; Function Attrs: nounwind sspstrong uwtable
define internal i64 @strscan_get_charpos(i64 noundef %0) #0 {
  %2 = tail call ptr @rb_check_typeddata(i64 noundef %0, ptr noundef nonnull @strscanner_type) #12
  %3 = getelementptr inbounds nuw i8, ptr %2, i64 8
  %4 = load i64, ptr %3, align 8, !tbaa !23
  %5 = icmp eq i64 %4, 4
  br i1 %5, label %6, label %8

6:                                                ; preds = %1
  %7 = load i64, ptr @rb_eArgError, align 8, !tbaa !10
  tail call void (i64, ptr, ...) @rb_raise(i64 noundef %7, ptr noundef nonnull @.str.66) #14
  unreachable

8:                                                ; preds = %1
  %9 = inttoptr i64 %4 to ptr
  %10 = load i64, ptr %9, align 8, !tbaa !34, !noalias !35
  %11 = and i64 %10, 8192
  %.not.i.i = icmp eq i64 %11, 0
  %12 = getelementptr inbounds nuw i8, ptr %9, i64 24
  br i1 %.not.i.i, label %RSTRING_PTR.exit8, label %13

13:                                               ; preds = %8
  %.sroa.2.0.copyload.i = load ptr, ptr %12, align 8
  br label %RSTRING_PTR.exit8

RSTRING_PTR.exit8:                                ; preds = %8, %13
  %.sroa.2.0.i7 = phi ptr [ %.sroa.2.0.copyload.i, %13 ], [ %12, %8 ]
  %14 = getelementptr inbounds nuw i8, ptr %2, i64 24
  %15 = load i64, ptr %14, align 8, !tbaa !29
  %16 = getelementptr inbounds i8, ptr %.sroa.2.0.i7, i64 %15
  %17 = tail call ptr @rb_enc_get(i64 noundef %4) #12
  %18 = tail call i64 @rb_enc_strlen(ptr noundef %.sroa.2.0.i7, ptr noundef %16, ptr noundef %17) #12
  %19 = add i64 %18, 4611686018427387904
  %or.cond.i = icmp sgt i64 %19, -1
  br i1 %or.cond.i, label %20, label %23

20:                                               ; preds = %RSTRING_PTR.exit8
  %21 = shl nsw i64 %18, 1
  %22 = or disjoint i64 %21, 1
  br label %rb_long2num_inline.exit

23:                                               ; preds = %RSTRING_PTR.exit8
  %24 = tail call i64 @rb_int2big(i64 noundef %18) #12
  br label %rb_long2num_inline.exit

rb_long2num_inline.exit:                          ; preds = %20, %23
  %.0.i = phi i64 [ %22, %20 ], [ %24, %23 ]
  ret i64 %.0.i
}